; ModuleID = 'source-C-CXX/25/578.c'
source_filename = "source-C-CXX/25/578.c"
target datalayout = "e-m:e-p270:32:32-p271:32:32-p272:64:64-i64:64-f80:128-n8:16:32:64-S128"
target triple = "x86_64-pc-linux-gnu"

%struct._IO_FILE = type { i32, i8*, i8*, i8*, i8*, i8*, i8*, i8*, i8*, i8*, i8*, i8*, %struct._IO_marker*, %struct._IO_FILE*, i32, i32, i64, i16, i8, [1 x i8], i8*, i64, %struct._IO_codecvt*, %struct._IO_wide_data*, %struct._IO_FILE*, i8*, i64, i32, [20 x i8] }
%struct._IO_marker = type opaque
%struct._IO_codecvt = type opaque
%struct._IO_wide_data = type opaque

@stdin = external local_unnamed_addr global %struct._IO_FILE*, align 8

; Function Attrs: nounwind sspstrong uwtable
define dso_local i32 @main() local_unnamed_addr #0 {
  %1 = alloca [100 x i8], align 16
  %2 = getelementptr inbounds [100 x i8], [100 x i8]* %1, i64 0, i64 0
  call void @llvm.lifetime.start.p0i8(i64 100, i8* nonnull %2) #6
  %3 = call i32 (i8*, ...) bitcast (i32 (...)* @gets to i32 (i8*, ...)*)(i8* nonnull %2) #6
  %4 = call i64 @strlen(i8* noundef nonnull %2) #7
  %5 = trunc i64 %4 to i32
  %6 = icmp sgt i32 %5, 0
  br i1 %6, label %11, label %143

7:                                                ; preds = %130
  %8 = icmp sgt i32 %132, 0
  br i1 %8, label %9, label %143

9:                                                ; preds = %7
  %10 = zext i32 %132 to i64
  br label %135

11:                                               ; preds = %0, %130
  %12 = phi i32 [ %132, %130 ], [ %5, %0 ]
  %13 = phi i32 [ %133, %130 ], [ 0, %0 ]
  %14 = sext i32 %13 to i64
  %15 = getelementptr inbounds [100 x i8], [100 x i8]* %1, i64 0, i64 %14
  %16 = load i8, i8* %15, align 1, !tbaa !5
  %17 = icmp eq i8 %16, 32
  br i1 %17, label %18, label %130

18:                                               ; preds = %11
  %19 = add nsw i32 %13, 1
  %20 = sext i32 %19 to i64
  %21 = getelementptr inbounds [100 x i8], [100 x i8]* %1, i64 0, i64 %20
  %22 = load i8, i8* %21, align 1, !tbaa !5
  %23 = icmp eq i8 %22, 32
  br i1 %23, label %24, label %130

24:                                               ; preds = %18
  %25 = add nsw i32 %12, -1
  %26 = icmp slt i32 %19, %25
  br i1 %26, label %27, label %128

27:                                               ; preds = %24
  %28 = add i32 %12, -3
  %29 = sub i32 %28, %13
  %30 = zext i32 %29 to i64
  %31 = add nuw nsw i64 %30, 1
  %32 = icmp ult i32 %29, 7
  br i1 %32, label %118, label %33

33:                                               ; preds = %27
  %34 = icmp ult i32 %29, 31
  br i1 %34, label %97, label %35

35:                                               ; preds = %33
  %36 = and i64 %31, 8589934560
  %37 = add nsw i64 %36, -32
  %38 = lshr exact i64 %37, 5
  %39 = add nuw nsw i64 %38, 1
  %40 = and i64 %39, 1
  %41 = icmp eq i64 %37, 0
  br i1 %41, label %75, label %42

42:                                               ; preds = %35
  %43 = and i64 %39, 1152921504606846974
  br label %44

44:                                               ; preds = %44, %42
  %45 = phi i64 [ 0, %42 ], [ %72, %44 ]
  %46 = phi i64 [ %43, %42 ], [ %73, %44 ]
  %47 = add i64 %45, %20
  %48 = add nsw i64 %47, 1
  %49 = getelementptr inbounds [100 x i8], [100 x i8]* %1, i64 0, i64 %48
  %50 = bitcast i8* %49 to <16 x i8>*
  %51 = load <16 x i8>, <16 x i8>* %50, align 1, !tbaa !5
  %52 = getelementptr inbounds i8, i8* %49, i64 16
  %53 = bitcast i8* %52 to <16 x i8>*
  %54 = load <16 x i8>, <16 x i8>* %53, align 1, !tbaa !5
  %55 = getelementptr inbounds [100 x i8], [100 x i8]* %1, i64 0, i64 %47
  %56 = bitcast i8* %55 to <16 x i8>*
  store <16 x i8> %51, <16 x i8>* %56, align 1, !tbaa !5
  %57 = getelementptr inbounds i8, i8* %55, i64 16
  %58 = bitcast i8* %57 to <16 x i8>*
  store <16 x i8> %54, <16 x i8>* %58, align 1, !tbaa !5
  %59 = or i64 %45, 32
  %60 = add i64 %59, %20
  %61 = add nsw i64 %60, 1
  %62 = getelementptr inbounds [100 x i8], [100 x i8]* %1, i64 0, i64 %61
  %63 = bitcast i8* %62 to <16 x i8>*
  %64 = load <16 x i8>, <16 x i8>* %63, align 1, !tbaa !5
  %65 = getelementptr inbounds i8, i8* %62, i64 16
  %66 = bitcast i8* %65 to <16 x i8>*
  %67 = load <16 x i8>, <16 x i8>* %66, align 1, !tbaa !5
  %68 = getelementptr inbounds [100 x i8], [100 x i8]* %1, i64 0, i64 %60
  %69 = bitcast i8* %68 to <16 x i8>*
  store <16 x i8> %64, <16 x i8>* %69, align 1, !tbaa !5
  %70 = getelementptr inbounds i8, i8* %68, i64 16
  %71 = bitcast i8* %70 to <16 x i8>*
  store <16 x i8> %67, <16 x i8>* %71, align 1, !tbaa !5
  %72 = add nuw i64 %45, 64
  %73 = add i64 %46, -2
  %74 = icmp eq i64 %73, 0
  br i1 %74, label %75, label %44, !llvm.loop !8

75:                                               ; preds = %44, %35
  %76 = phi i64 [ 0, %35 ], [ %72, %44 ]
  %77 = icmp eq i64 %40, 0
  br i1 %77, label %91, label %78

78:                                               ; preds = %75
  %79 = add i64 %76, %20
  %80 = add nsw i64 %79, 1
  %81 = getelementptr inbounds [100 x i8], [100 x i8]* %1, i64 0, i64 %80
  %82 = bitcast i8* %81 to <16 x i8>*
  %83 = load <16 x i8>, <16 x i8>* %82, align 1, !tbaa !5
  %84 = getelementptr inbounds i8, i8* %81, i64 16
  %85 = bitcast i8* %84 to <16 x i8>*
  %86 = load <16 x i8>, <16 x i8>* %85, align 1, !tbaa !5
  %87 = getelementptr inbounds [100 x i8], [100 x i8]* %1, i64 0, i64 %79
  %88 = bitcast i8* %87 to <16 x i8>*
  store <16 x i8> %83, <16 x i8>* %88, align 1, !tbaa !5
  %89 = getelementptr inbounds i8, i8* %87, i64 16
  %90 = bitcast i8* %89 to <16 x i8>*
  store <16 x i8> %86, <16 x i8>* %90, align 1, !tbaa !5
  br label %91

91:                                               ; preds = %75, %78
  %92 = icmp eq i64 %31, %36
  br i1 %92, label %128, label %93

93:                                               ; preds = %91
  %94 = add nsw i64 %36, %20
  %95 = and i64 %31, 24
  %96 = icmp eq i64 %95, 0
  br i1 %96, label %118, label %97

97:                                               ; preds = %33, %93
  %98 = phi i64 [ %36, %93 ], [ 0, %33 ]
  %99 = add i32 %12, -3
  %100 = sub i32 %99, %13
  %101 = zext i32 %100 to i64
  %102 = add nuw nsw i64 %101, 1
  %103 = and i64 %102, 8589934584
  %104 = add nsw i64 %103, %20
  br label %105

105:                                              ; preds = %105, %97
  %106 = phi i64 [ %98, %97 ], [ %114, %105 ]
  %107 = add i64 %106, %20
  %108 = add nsw i64 %107, 1
  %109 = getelementptr inbounds [100 x i8], [100 x i8]* %1, i64 0, i64 %108
  %110 = bitcast i8* %109 to <8 x i8>*
  %111 = load <8 x i8>, <8 x i8>* %110, align 1, !tbaa !5
  %112 = getelementptr inbounds [100 x i8], [100 x i8]* %1, i64 0, i64 %107
  %113 = bitcast i8* %112 to <8 x i8>*
  store <8 x i8> %111, <8 x i8>* %113, align 1, !tbaa !5
  %114 = add nuw i64 %106, 8
  %115 = icmp eq i64 %114, %103
  br i1 %115, label %116, label %105, !llvm.loop !11

116:                                              ; preds = %105
  %117 = icmp eq i64 %102, %103
  br i1 %117, label %128, label %118

118:                                              ; preds = %27, %93, %116
  %119 = phi i64 [ %20, %27 ], [ %94, %93 ], [ %104, %116 ]
  br label %120

120:                                              ; preds = %118, %120
  %121 = phi i64 [ %122, %120 ], [ %119, %118 ]
  %122 = add nsw i64 %121, 1
  %123 = getelementptr inbounds [100 x i8], [100 x i8]* %1, i64 0, i64 %122
  %124 = load i8, i8* %123, align 1, !tbaa !5
  %125 = getelementptr inbounds [100 x i8], [100 x i8]* %1, i64 0, i64 %121
  store i8 %124, i8* %125, align 1, !tbaa !5
  %126 = trunc i64 %122 to i32
  %127 = icmp eq i32 %25, %126
  br i1 %127, label %128, label %120, !llvm.loop !12

128:                                              ; preds = %120, %91, %116, %24
  %129 = add nsw i32 %13, -1
  br label %130

130:                                              ; preds = %11, %18, %128
  %131 = phi i32 [ %129, %128 ], [ %13, %18 ], [ %13, %11 ]
  %132 = phi i32 [ %25, %128 ], [ %12, %18 ], [ %12, %11 ]
  %133 = add nsw i32 %131, 1
  %134 = icmp slt i32 %133, %132
  br i1 %134, label %11, label %7, !llvm.loop !14

135:                                              ; preds = %9, %135
  %136 = phi i64 [ 0, %9 ], [ %141, %135 ]
  %137 = getelementptr inbounds [100 x i8], [100 x i8]* %1, i64 0, i64 %136
  %138 = load i8, i8* %137, align 1, !tbaa !5
  %139 = sext i8 %138 to i32
  %140 = call i32 @putchar(i32 %139)
  %141 = add nuw nsw i64 %136, 1
  %142 = icmp eq i64 %141, %10
  br i1 %142, label %143, label %135, !llvm.loop !15

143:                                              ; preds = %135, %0, %7
  %144 = load %struct._IO_FILE*, %struct._IO_FILE** @stdin, align 8, !tbaa !16
  %145 = call i32 @getc(%struct._IO_FILE* %144) #6
  %146 = load %struct._IO_FILE*, %struct._IO_FILE** @stdin, align 8, !tbaa !16
  %147 = call i32 @getc(%struct._IO_FILE* %146) #6
  call void @llvm.lifetime.end.p0i8(i64 100, i8* nonnull %2) #6
  ret i32 0
}

; Function Attrs: argmemonly mustprogress nofree nosync nounwind willreturn
declare void @llvm.lifetime.start.p0i8(i64 immarg, i8* nocapture) #1

declare i32 @gets(...) local_unnamed_addr #2

; Function Attrs: argmemonly mustprogress nofree nounwind readonly willreturn
declare i64 @strlen(i8* nocapture) local_unnamed_addr #3

; Function Attrs: argmemonly mustprogress nofree nosync nounwind willreturn
declare void @llvm.lifetime.end.p0i8(i64 immarg, i8* nocapture) #1

; Function Attrs: nofree nounwind
declare noundef i32 @getc(%struct._IO_FILE* nocapture noundef) local_unnamed_addr #4

; Function Attrs: nofree nounwind
declare noundef i32 @putchar(i32 noundef) local_unnamed_addr #5


!llvm.module.flags = !{!0, !1, !2, !3}
!llvm.ident = !{!4}

!0 = !{i32 1, !"wchar_size", i32 4}
!1 = !{i32 7, !"PIC Level", i32 2}
!2 = !{i32 7, !"PIE Level", i32 2}
!3 = !{i32 7, !"uwtable", i32 1}
!4 = !{!"clang version 13.0.0"}
!5 = !{!6, !6, i64 0}
!6 = !{!"omnipotent char", !7, i64 0}
!7 = !{!"Simple C/C++ TBAA"}
!8 = distinct !{!8, !9, !10}
!9 = !{!"llvm.loop.mustprogress"}
!10 = !{!"llvm.loop.isvectorized", i32 1}
!11 = distinct !{!11, !9, !10}
!12 = distinct !{!12, !9, !13, !10}
!13 = !{!"llvm.loop.unroll.runtime.disable"}
!14 = distinct !{!14, !9}
!15 = distinct !{!15, !9}
!16 = !{!17, !17, i64 0}
!17 = !{!"any pointer", !6, i64 0}
